target datalayout = "e-m:e-p270:32:32-p271:32:32-p272:64:64-i64:64-i128:128-f80:128-n8:16:32:64-S128"
target triple = "x86_64-pc-linux-gnu"

@.str = private unnamed_addr constant [55 x i8] c"get_procs: error running sysconf(_SC_NPROCESSORS_ONLN)\00", align 1

; Function Attrs: nounwind uwtable
define dso_local i32 @get_procs(ptr noundef %0) #0 {
  %2 = alloca i32, align 4
  %3 = alloca ptr, align 8
  %4 = alloca i32, align 4
  %5 = alloca i32, align 4
  store ptr %0, ptr %3, align 8
  call void @llvm.lifetime.start.p0(i64 4, ptr %4) #9
  %6 = load ptr, ptr %3, align 8
  store i16 1, ptr %6, align 2
  %7 = call i64 @sysconf(i32 noundef 84) #9
  %8 = trunc i64 %7 to i32
  store i32 %8, ptr %4, align 4
  %9 = load i32, ptr %4, align 4
  %10 = icmp slt i32 %9, 1
  br i1 %10, label %11, label %13

11:                                               ; preds = %1
  %12 = call i32 (ptr, ...) @error(ptr noundef @.str)
  store i32 22, ptr %2, align 4
  store i32 1, ptr %5, align 4
  br label %17

13:                                               ; preds = %1
  %14 = load i32, ptr %4, align 4
  %15 = trunc i32 %14 to i16
  %16 = load ptr, ptr %3, align 8
  store i16 %15, ptr %16, align 2
  store i32 0, ptr %2, align 4
  store i32 1, ptr %5, align 4
  br label %17

17:                                               ; preds = %13, %11
  call void @llvm.lifetime.end.p0(i64 4, ptr %4) #9
  %18 = load i32, ptr %2, align 4
  ret i32 %18
}