; Function Attrs: nounwind uwtable
define dso_local range(i32 0, 23) i32 @get_procs(ptr noundef writeonly captures(none) initializes((0, 2)) %0) local_unnamed_addr #0 {
  store i16 1, ptr %0, align 2
  %2 = tail call i64 @sysconf(i32 noundef 84) #12
  %3 = trunc i64 %2 to i32
  %4 = icmp slt i32 %3, 1
  br i1 %4, label %5, label %7

5:                                                ; preds = %1
  %6 = tail call i32 (ptr, ...) @error(ptr noundef nonnull @.str) #12
  br label %9

7:                                                ; preds = %1
  %8 = trunc i64 %2 to i16
  store i16 %8, ptr %0, align 2
  br label %9

9:                                                ; preds = %7, %5
  %.0 = phi i32 [ 22, %5 ], [ 0, %7 ]
  ret i32 %.0
}